target datalayout = "e-m:e-p270:32:32-p271:32:32-p272:64:64-i64:64-i128:128-f80:128-n8:16:32:64-S128"
target triple = "x86_64-pc-linux-gnu"

%struct.PlannerInfo = type { i32, ptr, ptr, i32, ptr, ptr, ptr, ptr, i32, ptr, ptr, ptr, ptr, ptr, ptr, ptr, ptr, i32, ptr, ptr, ptr, ptr, ptr, i8, ptr, ptr, ptr, ptr, ptr, i32, ptr, ptr, ptr, ptr, ptr, ptr, ptr, i32, ptr, ptr, ptr, i32, ptr, ptr, ptr, ptr, ptr, ptr, [8 x ptr], [8 x ptr], ptr, ptr, ptr, ptr, ptr, ptr, ptr, double, double, double, i32, i8, i8, i8, i8, i8, i8, i8, i32, ptr, ptr, i32, i8, i8, i32, ptr, ptr, ptr, ptr, ptr, ptr, i8, ptr }

@effective_cache_size = dso_local global i32 524288, align 4

; Function Attrs: nounwind uwtable
define dso_local double @index_pages_fetched(double noundef %0, i32 noundef %1, double noundef %2, ptr noundef %3) #0 {
  %5 = alloca double, align 8
  %6 = alloca i32, align 4
  %7 = alloca double, align 8
  %8 = alloca ptr, align 8
  %9 = alloca double, align 8
  %10 = alloca double, align 8
  %11 = alloca double, align 8
  %12 = alloca double, align 8
  %13 = alloca double, align 8
  store double %0, ptr %5, align 8
  store i32 %1, ptr %6, align 4
  store double %2, ptr %7, align 8
  store ptr %3, ptr %8, align 8
  call void @llvm.lifetime.start.p0(i64 8, ptr %9) #9
  call void @llvm.lifetime.start.p0(i64 8, ptr %10) #9
  call void @llvm.lifetime.start.p0(i64 8, ptr %11) #9
  call void @llvm.lifetime.start.p0(i64 8, ptr %12) #9
  %14 = load i32, ptr %6, align 4
  %15 = icmp ugt i32 %14, 1
  br i1 %15, label %16, label %19

16:                                               ; preds = %4
  %17 = load i32, ptr %6, align 4
  %18 = uitofp i32 %17 to double
  br label %20

19:                                               ; preds = %4
  br label %20

20:                                               ; preds = %19, %16
  %21 = phi double [ %18, %16 ], [ 1.000000e+00, %19 ]
  store double %21, ptr %11, align 8
  %22 = load ptr, ptr %8, align 8
  %23 = getelementptr inbounds nuw %struct.PlannerInfo, ptr %22, i32 0, i32 57
  %24 = load double, ptr %23, align 8
  %25 = load double, ptr %7, align 8
  %26 = fadd double %24, %25
  store double %26, ptr %10, align 8
  %27 = load double, ptr %10, align 8
  %28 = fcmp ogt double %27, 1.000000e+00
  br i1 %28, label %29, label %31

29:                                               ; preds = %20
  %30 = load double, ptr %10, align 8
  br label %32

31:                                               ; preds = %20
  br label %32

32:                                               ; preds = %31, %29
  %33 = phi double [ %30, %29 ], [ 1.000000e+00, %31 ]
  store double %33, ptr %10, align 8
  %34 = load i32, ptr @effective_cache_size, align 4
  %35 = sitofp i32 %34 to double
  %36 = load double, ptr %11, align 8
  %37 = fmul double %35, %36
  %38 = load double, ptr %10, align 8
  %39 = fdiv double %37, %38
  store double %39, ptr %12, align 8
  %40 = load double, ptr %12, align 8
  %41 = fcmp ole double %40, 1.000000e+00
  br i1 %41, label %42, label %43

42:                                               ; preds = %32
  store double 1.000000e+00, ptr %12, align 8
  br label %46

43:                                               ; preds = %32
  %44 = load double, ptr %12, align 8
  %45 = call double @llvm.ceil.f64(double %44)
  store double %45, ptr %12, align 8
  br label %46

46:                                               ; preds = %43, %42
  %47 = load double, ptr %11, align 8
  %48 = load double, ptr %12, align 8
  %49 = fcmp ole double %47, %48
  br i1 %49, label %50, label %68

50:                                               ; preds = %46
  %51 = load double, ptr %11, align 8
  %52 = fmul double 2.000000e+00, %51
  %53 = load double, ptr %5, align 8
  %54 = fmul double %52, %53
  %55 = load double, ptr %11, align 8
  %56 = load double, ptr %5, align 8
  %57 = call double @llvm.fmuladd.f64(double 2.000000e+00, double %55, double %56)
  %58 = fdiv double %54, %57
  store double %58, ptr %9, align 8
  %59 = load double, ptr %9, align 8
  %60 = load double, ptr %11, align 8
  %61 = fcmp oge double %59, %60
  br i1 %61, label %62, label %64

62:                                               ; preds = %50
  %63 = load double, ptr %11, align 8
  store double %63, ptr %9, align 8
  br label %67

64:                                               ; preds = %50
  %65 = load double, ptr %9, align 8
  %66 = call double @llvm.ceil.f64(double %65)
  store double %66, ptr %9, align 8
  br label %67

67:                                               ; preds = %64, %62
  br label %105

68:                                               ; preds = %46
  call void @llvm.lifetime.start.p0(i64 8, ptr %13) #9
  %69 = load double, ptr %11, align 8
  %70 = fmul double 2.000000e+00, %69
  %71 = load double, ptr %12, align 8
  %72 = fmul double %70, %71
  %73 = load double, ptr %11, align 8
  %74 = load double, ptr %12, align 8
  %75 = fneg double %74
  %76 = call double @llvm.fmuladd.f64(double 2.000000e+00, double %73, double %75)
  %77 = fdiv double %72, %76
  store double %77, ptr %13, align 8
  %78 = load double, ptr %5, align 8
  %79 = load double, ptr %13, align 8
  %80 = fcmp ole double %78, %79
  br i1 %80, label %81, label %90

81:                                               ; preds = %68
  %82 = load double, ptr %11, align 8
  %83 = fmul double 2.000000e+00, %82
  %84 = load double, ptr %5, align 8
  %85 = fmul double %83, %84
  %86 = load double, ptr %11, align 8
  %87 = load double, ptr %5, align 8
  %88 = call double @llvm.fmuladd.f64(double 2.000000e+00, double %86, double %87)
  %89 = fdiv double %85, %88
  store double %89, ptr %9, align 8
  br label %102

90:                                               ; preds = %68
  %91 = load double, ptr %12, align 8
  %92 = load double, ptr %5, align 8
  %93 = load double, ptr %13, align 8
  %94 = fsub double %92, %93
  %95 = load double, ptr %11, align 8
  %96 = load double, ptr %12, align 8
  %97 = fsub double %95, %96
  %98 = fmul double %94, %97
  %99 = load double, ptr %11, align 8
  %100 = fdiv double %98, %99
  %101 = fadd double %91, %100
  store double %101, ptr %9, align 8
  br label %102

102:                                              ; preds = %90, %81
  %103 = load double, ptr %9, align 8
  %104 = call double @llvm.ceil.f64(double %103)
  store double %104, ptr %9, align 8
  call void @llvm.lifetime.end.p0(i64 8, ptr %13) #9
  br label %105

105:                                              ; preds = %102, %67
  %106 = load double, ptr %9, align 8
  call void @llvm.lifetime.end.p0(i64 8, ptr %12) #9
  call void @llvm.lifetime.end.p0(i64 8, ptr %11) #9
  call void @llvm.lifetime.end.p0(i64 8, ptr %10) #9
  call void @llvm.lifetime.end.p0(i64 8, ptr %9) #9
  ret double %106
}