; Function Attrs: mustprogress nofree norecurse nosync nounwind willreturn memory(read, inaccessiblemem: none) uwtable
define dso_local double @index_pages_fetched(double noundef %0, i32 noundef %1, double noundef %2, ptr noundef readonly captures(none) %3) local_unnamed_addr #8 {
  %5 = tail call i32 @llvm.umax.i32(i32 %1, i32 1)
  %6 = uitofp i32 %5 to double
  %7 = getelementptr inbounds nuw i8, ptr %3, i64 568
  %8 = load double, ptr %7, align 8
  %9 = fadd double %2, %8
  %10 = fcmp ogt double %9, 1.000000e+00
  %11 = select i1 %10, double %9, double 1.000000e+00
  %12 = load i32, ptr @effective_cache_size, align 4
  %13 = sitofp i32 %12 to double
  %14 = fmul double %6, %13
  %15 = fdiv double %14, %11
  %16 = fcmp ugt double %15, 1.000000e+00
  %17 = tail call double @llvm.ceil.f64(double %15)
  %.037 = select i1 %16, double %17, double 1.000000e+00
  %18 = fcmp ult double %.037, %6
  %19 = fmul double %6, 2.000000e+00
  br i1 %18, label %27, label %20

20:                                               ; preds = %4
  %21 = fmul double %0, %19
  %22 = tail call double @llvm.fmuladd.f64(double %6, double 2.000000e+00, double %0)
  %23 = fdiv double %21, %22
  %24 = fcmp ult double %23, %6
  br i1 %24, label %25, label %45

25:                                               ; preds = %20
  %26 = tail call double @llvm.ceil.f64(double %23)
  br label %45

27:                                               ; preds = %4
  %28 = fmul double %19, %.037
  %29 = fneg double %.037
  %30 = tail call double @llvm.fmuladd.f64(double %6, double 2.000000e+00, double %29)
  %31 = fdiv double %28, %30
  %32 = fcmp ugt double %0, %31
  br i1 %32, label %37, label %33

33:                                               ; preds = %27
  %34 = fmul double %0, %19
  %35 = tail call double @llvm.fmuladd.f64(double %6, double 2.000000e+00, double %0)
  %36 = fdiv double %34, %35
  br label %43

37:                                               ; preds = %27
  %38 = fsub double %0, %31
  %39 = fsub double %6, %.037
  %40 = fmul double %39, %38
  %41 = fdiv double %40, %6
  %42 = fadd double %.037, %41
  br label %43

43:                                               ; preds = %37, %33
  %.1 = phi double [ %36, %33 ], [ %42, %37 ]
  %44 = tail call double @llvm.ceil.f64(double %.1)
  br label %45

45:                                               ; preds = %20, %25, %43
  %.0 = phi double [ %26, %25 ], [ %44, %43 ], [ %6, %20 ]
  ret double %.0
}